; Function Attrs: mustprogress uwtable
define noundef zeroext i1 @_ZNK8facebook5velox11ArrayVector14containsNullAtEi(ptr nocapture noundef nonnull readonly align 8 dereferenceable(152) %this, i32 noundef %idx) unnamed_addr #0 align 2 {
entry:
  %rawNulls_.i = getelementptr inbounds i8, ptr %this, i64 40
  %0 = load ptr, ptr %rawNulls_.i, align 8
  %tobool.not.i = icmp eq ptr %0, null
  %.pre = sext i32 %idx to i64
  br i1 %tobool.not.i, label %if.end, label %_ZNK8facebook5velox10BaseVector8isNullAtEi.exit

_ZNK8facebook5velox10BaseVector8isNullAtEi.exit:  ; preds = %entry
  %div2.i.i.i = lshr i64 %.pre, 6
  %arrayidx.i.i.i = getelementptr inbounds i64, ptr %0, i64 %div2.i.i.i
  %1 = load i64, ptr %arrayidx.i.i.i, align 8
  %and.i.i.i = and i64 %.pre, 63
  %shl.i.i.i = shl nuw i64 1, %and.i.i.i
  %and2.i.i.i = and i64 %1, %shl.i.i.i
  %tobool.i.not.i.i = icmp eq i64 %and2.i.i.i, 0
  br i1 %tobool.i.not.i.i, label %return, label %if.end

if.end:                                           ; preds = %entry, %_ZNK8facebook5velox10BaseVector8isNullAtEi.exit
  %rawOffsets_ = getelementptr inbounds i8, ptr %this, i64 112
  %2 = load ptr, ptr %rawOffsets_, align 8
  %arrayidx = getelementptr inbounds i32, ptr %2, i64 %.pre
  %3 = load i32, ptr %arrayidx, align 4
  %rawSizes_ = getelementptr inbounds i8, ptr %this, i64 128
  %4 = load ptr, ptr %rawSizes_, align 8
  %arrayidx3 = getelementptr inbounds i32, ptr %4, i64 %.pre
  %5 = load i32, ptr %arrayidx3, align 4
  %cmp6 = icmp sgt i32 %5, 0
  br i1 %cmp6, label %for.body.lr.ph, label %return

for.body.lr.ph:                                   ; preds = %if.end
  %elements_ = getelementptr inbounds i8, ptr %this, i64 136
  br label %for.body

for.body:                                         ; preds = %for.body, %for.body.lr.ph
  %i.07 = phi i32 [ 0, %for.body.lr.ph ], [ %inc, %for.body ]
  %6 = load ptr, ptr %elements_, align 8
  %add = add nsw i32 %i.07, %3
  %vtable = load ptr, ptr %6, align 8
  %vfn = getelementptr inbounds i8, ptr %vtable, i64 40
  %7 = load ptr, ptr %vfn, align 8
  %call5 = tail call noundef zeroext i1 %7(ptr noundef nonnull align 8 dereferenceable(99) %6, i32 noundef %add)
  %inc = add nuw nsw i32 %i.07, 1
  %exitcond.not = icmp eq i32 %inc, %5
  %or.cond = select i1 %call5, i1 true, i1 %exitcond.not
  br i1 %or.cond, label %return, label %for.body, !llvm.loop !75

return:                                           ; preds = %for.body, %if.end, %_ZNK8facebook5velox10BaseVector8isNullAtEi.exit
  %retval.0 = phi i1 [ true, %_ZNK8facebook5velox10BaseVector8isNullAtEi.exit ], [ false, %if.end ], [ %call5, %for.body ]
  ret i1 %retval.0
}